target datalayout = "e-m:e-p270:32:32-p271:32:32-p272:64:64-i64:64-i128:128-f80:128-n8:16:32:64-S128"
target triple = "x86_64-pc-linux-gnu"

%struct.archive_entry_linkresolver = type { ptr, ptr, i64, i64, i32 }
%struct.links_entry = type { ptr, ptr, ptr, ptr, i64, i32 }

; Function Attrs: nounwind uwtable
define dso_local ptr @archive_entry_partial_links(ptr noundef %0, ptr noundef %1) #0 {
  %3 = alloca ptr, align 8
  %4 = alloca ptr, align 8
  %5 = alloca ptr, align 8
  %6 = alloca ptr, align 8
  store ptr %0, ptr %3, align 8, !tbaa !4
  store ptr %1, ptr %4, align 8, !tbaa !38
  call void @llvm.lifetime.start.p0(i64 8, ptr %5) #5
  call void @llvm.lifetime.start.p0(i64 8, ptr %6) #5
  %7 = load ptr, ptr %3, align 8, !tbaa !4
  %8 = getelementptr inbounds nuw %struct.archive_entry_linkresolver, ptr %7, i32 0, i32 1
  %9 = load ptr, ptr %8, align 8, !tbaa !24
  %10 = icmp ne ptr %9, null
  br i1 %10, label %11, label %27

11:                                               ; preds = %2
  %12 = load ptr, ptr %3, align 8, !tbaa !4
  %13 = getelementptr inbounds nuw %struct.archive_entry_linkresolver, ptr %12, i32 0, i32 1
  %14 = load ptr, ptr %13, align 8, !tbaa !24
  %15 = getelementptr inbounds nuw %struct.links_entry, ptr %14, i32 0, i32 2
  %16 = load ptr, ptr %15, align 8, !tbaa !25
  call void @archive_entry_free(ptr noundef %16)
  %17 = load ptr, ptr %3, align 8, !tbaa !4
  %18 = getelementptr inbounds nuw %struct.archive_entry_linkresolver, ptr %17, i32 0, i32 1
  %19 = load ptr, ptr %18, align 8, !tbaa !24
  %20 = getelementptr inbounds nuw %struct.links_entry, ptr %19, i32 0, i32 3
  %21 = load ptr, ptr %20, align 8, !tbaa !19
  call void @archive_entry_free(ptr noundef %21)
  %22 = load ptr, ptr %3, align 8, !tbaa !4
  %23 = getelementptr inbounds nuw %struct.archive_entry_linkresolver, ptr %22, i32 0, i32 1
  %24 = load ptr, ptr %23, align 8, !tbaa !24
  call void @free(ptr noundef %24) #5
  %25 = load ptr, ptr %3, align 8, !tbaa !4
  %26 = getelementptr inbounds nuw %struct.archive_entry_linkresolver, ptr %25, i32 0, i32 1
  store ptr null, ptr %26, align 8, !tbaa !24
  br label %27

27:                                               ; preds = %11, %2
  %28 = load ptr, ptr %3, align 8, !tbaa !4
  %29 = call ptr @next_entry(ptr noundef %28, i32 noundef 2)
  store ptr %29, ptr %6, align 8, !tbaa !18
  %30 = load ptr, ptr %6, align 8, !tbaa !18
  %31 = icmp ne ptr %30, null
  br i1 %31, label %32, label %46

32:                                               ; preds = %27
  %33 = load ptr, ptr %6, align 8, !tbaa !18
  %34 = getelementptr inbounds nuw %struct.links_entry, ptr %33, i32 0, i32 2
  %35 = load ptr, ptr %34, align 8, !tbaa !25
  store ptr %35, ptr %5, align 8, !tbaa !34
  %36 = load ptr, ptr %4, align 8, !tbaa !38
  %37 = icmp ne ptr %36, null
  br i1 %37, label %38, label %43

38:                                               ; preds = %32
  %39 = load ptr, ptr %6, align 8, !tbaa !18
  %40 = getelementptr inbounds nuw %struct.links_entry, ptr %39, i32 0, i32 5
  %41 = load i32, ptr %40, align 8, !tbaa !35
  %42 = load ptr, ptr %4, align 8, !tbaa !38
  store i32 %41, ptr %42, align 4, !tbaa !16
  br label %43

43:                                               ; preds = %38, %32
  %44 = load ptr, ptr %6, align 8, !tbaa !18
  %45 = getelementptr inbounds nuw %struct.links_entry, ptr %44, i32 0, i32 2
  store ptr null, ptr %45, align 8, !tbaa !25
  br label %52

46:                                               ; preds = %27
  store ptr null, ptr %5, align 8, !tbaa !34
  %47 = load ptr, ptr %4, align 8, !tbaa !38
  %48 = icmp ne ptr %47, null
  br i1 %48, label %49, label %51

49:                                               ; preds = %46
  %50 = load ptr, ptr %4, align 8, !tbaa !38
  store i32 0, ptr %50, align 4, !tbaa !16
  br label %51

51:                                               ; preds = %49, %46
  br label %52

52:                                               ; preds = %51, %43
  %53 = load ptr, ptr %5, align 8, !tbaa !34
  call void @llvm.lifetime.end.p0(i64 8, ptr %6) #5
  call void @llvm.lifetime.end.p0(i64 8, ptr %5) #5
  ret ptr %53
}