; Function Attrs: nounwind uwtable
define dso_local ptr @archive_entry_partial_links(ptr noundef captures(none) %0, ptr noundef writeonly %1) local_unnamed_addr #4 {
  %3 = getelementptr inbounds nuw i8, ptr %0, i64 8
  %4 = load ptr, ptr %3, align 8, !tbaa !15
  %.not = icmp eq ptr %4, null
  br i1 %.not, label %12, label %5

5:                                                ; preds = %2
  %6 = getelementptr inbounds nuw i8, ptr %4, i64 16
  %7 = load ptr, ptr %6, align 8, !tbaa !16
  tail call void @archive_entry_free(ptr noundef %7) #7
  %8 = load ptr, ptr %3, align 8, !tbaa !15
  %9 = getelementptr inbounds nuw i8, ptr %8, i64 24
  %10 = load ptr, ptr %9, align 8, !tbaa !19
  tail call void @archive_entry_free(ptr noundef %10) #7
  %11 = load ptr, ptr %3, align 8, !tbaa !15
  tail call void @free(ptr noundef %11) #7
  store ptr null, ptr %3, align 8, !tbaa !15
  br label %12

12:                                               ; preds = %5, %2
  %13 = tail call fastcc ptr @next_entry(ptr noundef nonnull %0, i32 noundef 2)
  %.not18 = icmp eq ptr %13, null
  br i1 %.not18, label %21, label %14

14:                                               ; preds = %12
  %15 = getelementptr inbounds nuw i8, ptr %13, i64 16
  %16 = load ptr, ptr %15, align 8, !tbaa !16
  %.not20 = icmp eq ptr %1, null
  br i1 %.not20, label %20, label %17

17:                                               ; preds = %14
  %18 = getelementptr inbounds nuw i8, ptr %13, i64 40
  %19 = load i32, ptr %18, align 8, !tbaa !29
  store i32 %19, ptr %1, align 4, !tbaa !34
  br label %20

20:                                               ; preds = %17, %14
  store ptr null, ptr %15, align 8, !tbaa !16
  br label %23

21:                                               ; preds = %12
  %.not19 = icmp eq ptr %1, null
  br i1 %.not19, label %23, label %22

22:                                               ; preds = %21
  store i32 0, ptr %1, align 4, !tbaa !34
  br label %23

23:                                               ; preds = %21, %22, %20
  %.0 = phi ptr [ %16, %20 ], [ null, %22 ], [ null, %21 ]
  ret ptr %.0
}